; ModuleID = '57/2821.c'
source_filename = "57/2821.c"
target datalayout = "e-m:e-p270:32:32-p271:32:32-p272:64:64-i64:64-f80:128-n8:16:32:64-S128"
target triple = "x86_64-pc-linux-gnu"

@.str = private unnamed_addr constant [3 x i8] c"%d\00", align 1
@.str.1 = private unnamed_addr constant [3 x i8] c"%s\00", align 1
@.str.2 = private unnamed_addr constant [4 x i8] c"%s\0A\00", align 1

; Function Attrs: noinline nounwind uwtable
define dso_local i32 @main() #0 {
  %1 = alloca i32, align 4
  %2 = alloca i32, align 4
  %3 = alloca i32, align 4
  %4 = alloca i32, align 4
  %5 = alloca i32, align 4
  %6 = alloca i32, align 4
  %7 = alloca [50 x [100 x i8]], align 16
  store i32 0, i32* %1, align 4
  store i32 0, i32* %3, align 4
  %8 = call i32 (i8*, ...) @__isoc99_scanf(i8* getelementptr inbounds ([3 x i8], [3 x i8]* @.str, i64 0, i64 0), i32* %2)
  store i32 0, i32* %4, align 4
  br label %9

9:                                                ; preds = %19, %0
  %10 = load i32, i32* %4, align 4
  %11 = load i32, i32* %2, align 4
  %12 = icmp slt i32 %10, %11
  br i1 %12, label %13, label %22

13:                                               ; preds = %9
  %14 = load i32, i32* %4, align 4
  %15 = sext i32 %14 to i64
  %16 = getelementptr inbounds [50 x [100 x i8]], [50 x [100 x i8]]* %7, i64 0, i64 %15
  %17 = getelementptr inbounds [100 x i8], [100 x i8]* %16, i64 0, i64 0
  %18 = call i32 (i8*, ...) @__isoc99_scanf(i8* getelementptr inbounds ([3 x i8], [3 x i8]* @.str.1, i64 0, i64 0), i8* %17)
  br label %19

19:                                               ; preds = %13
  %20 = load i32, i32* %4, align 4
  %21 = add nsw i32 %20, 1
  store i32 %21, i32* %4, align 4
  br label %9

22:                                               ; preds = %9
  store i32 0, i32* %4, align 4
  br label %23

23:                                               ; preds = %136, %22
  %24 = load i32, i32* %4, align 4
  %25 = load i32, i32* %2, align 4
  %26 = icmp slt i32 %24, %25
  br i1 %26, label %27, label %139

27:                                               ; preds = %23
  %28 = load i32, i32* %4, align 4
  %29 = sext i32 %28 to i64
  %30 = getelementptr inbounds [50 x [100 x i8]], [50 x [100 x i8]]* %7, i64 0, i64 %29
  %31 = getelementptr inbounds [100 x i8], [100 x i8]* %30, i64 0, i64 0
  %32 = call i64 @strlen(i8* %31) #3
  %33 = trunc i64 %32 to i32
  store i32 %33, i32* %3, align 4
  store i32 0, i32* %5, align 4
  br label %34

34:                                               ; preds = %91, %27
  %35 = load i32, i32* %5, align 4
  %36 = load i32, i32* %3, align 4
  %37 = icmp slt i32 %35, %36
  br i1 %37, label %38, label %94

38:                                               ; preds = %34
  %39 = load i32, i32* %4, align 4
  %40 = sext i32 %39 to i64
  %41 = getelementptr inbounds [50 x [100 x i8]], [50 x [100 x i8]]* %7, i64 0, i64 %40
  %42 = load i32, i32* %3, align 4
  %43 = sub nsw i32 %42, 2
  %44 = sext i32 %43 to i64
  %45 = getelementptr inbounds [100 x i8], [100 x i8]* %41, i64 0, i64 %44
  %46 = load i8, i8* %45, align 1
  %47 = sext i8 %46 to i32
  %48 = icmp eq i32 %47, 101
  br i1 %48, label %49, label %60

49:                                               ; preds = %38
  %50 = load i32, i32* %4, align 4
  %51 = sext i32 %50 to i64
  %52 = getelementptr inbounds [50 x [100 x i8]], [50 x [100 x i8]]* %7, i64 0, i64 %51
  %53 = load i32, i32* %3, align 4
  %54 = sub nsw i32 %53, 1
  %55 = sext i32 %54 to i64
  %56 = getelementptr inbounds [100 x i8], [100 x i8]* %52, i64 0, i64 %55
  %57 = load i8, i8* %56, align 1
  %58 = sext i8 %57 to i32
  %59 = icmp eq i32 %58, 114
  br i1 %59, label %82, label %60

60:                                               ; preds = %49, %38
  %61 = load i32, i32* %4, align 4
  %62 = sext i32 %61 to i64
  %63 = getelementptr inbounds [50 x [100 x i8]], [50 x [100 x i8]]* %7, i64 0, i64 %62
  %64 = load i32, i32* %3, align 4
  %65 = sub nsw i32 %64, 2
  %66 = sext i32 %65 to i64
  %67 = getelementptr inbounds [100 x i8], [100 x i8]* %63, i64 0, i64 %66
  %68 = load i8, i8* %67, align 1
  %69 = sext i8 %68 to i32
  %70 = icmp eq i32 %69, 108
  br i1 %70, label %71, label %90

71:                                               ; preds = %60
  %72 = load i32, i32* %4, align 4
  %73 = sext i32 %72 to i64
  %74 = getelementptr inbounds [50 x [100 x i8]], [50 x [100 x i8]]* %7, i64 0, i64 %73
  %75 = load i32, i32* %3, align 4
  %76 = sub nsw i32 %75, 1
  %77 = sext i32 %76 to i64
  %78 = getelementptr inbounds [100 x i8], [100 x i8]* %74, i64 0, i64 %77
  %79 = load i8, i8* %78, align 1
  %80 = sext i8 %79 to i32
  %81 = icmp eq i32 %80, 121
  br i1 %81, label %82, label %90

82:                                               ; preds = %71, %49
  %83 = load i32, i32* %4, align 4
  %84 = sext i32 %83 to i64
  %85 = getelementptr inbounds [50 x [100 x i8]], [50 x [100 x i8]]* %7, i64 0, i64 %84
  %86 = load i32, i32* %3, align 4
  %87 = sub nsw i32 %86, 2
  %88 = sext i32 %87 to i64
  %89 = getelementptr inbounds [100 x i8], [100 x i8]* %85, i64 0, i64 %88
  store i8 0, i8* %89, align 1
  br label %90

90:                                               ; preds = %82, %71, %60
  br label %91

91:                                               ; preds = %90
  %92 = load i32, i32* %5, align 4
  %93 = add nsw i32 %92, 1
  store i32 %93, i32* %5, align 4
  br label %34

94:                                               ; preds = %34
  %95 = load i32, i32* %4, align 4
  %96 = sext i32 %95 to i64
  %97 = getelementptr inbounds [50 x [100 x i8]], [50 x [100 x i8]]* %7, i64 0, i64 %96
  %98 = load i32, i32* %3, align 4
  %99 = sub nsw i32 %98, 3
  %100 = sext i32 %99 to i64
  %101 = getelementptr inbounds [100 x i8], [100 x i8]* %97, i64 0, i64 %100
  %102 = load i8, i8* %101, align 1
  %103 = sext i8 %102 to i32
  %104 = icmp eq i32 %103, 105
  br i1 %104, label %105, label %135

105:                                              ; preds = %94
  %106 = load i32, i32* %4, align 4
  %107 = sext i32 %106 to i64
  %108 = getelementptr inbounds [50 x [100 x i8]], [50 x [100 x i8]]* %7, i64 0, i64 %107
  %109 = load i32, i32* %3, align 4
  %110 = sub nsw i32 %109, 2
  %111 = sext i32 %110 to i64
  %112 = getelementptr inbounds [100 x i8], [100 x i8]* %108, i64 0, i64 %111
  %113 = load i8, i8* %112, align 1
  %114 = sext i8 %113 to i32
  %115 = icmp eq i32 %114, 110
  br i1 %115, label %116, label %135

116:                                              ; preds = %105
  %117 = load i32, i32* %4, align 4
  %118 = sext i32 %117 to i64
  %119 = getelementptr inbounds [50 x [100 x i8]], [50 x [100 x i8]]* %7, i64 0, i64 %118
  %120 = load i32, i32* %3, align 4
  %121 = sub nsw i32 %120, 1
  %122 = sext i32 %121 to i64
  %123 = getelementptr inbounds [100 x i8], [100 x i8]* %119, i64 0, i64 %122
  %124 = load i8, i8* %123, align 1
  %125 = sext i8 %124 to i32
  %126 = icmp eq i32 %125, 103
  br i1 %126, label %127, label %135

127:                                              ; preds = %116
  %128 = load i32, i32* %4, align 4
  %129 = sext i32 %128 to i64
  %130 = getelementptr inbounds [50 x [100 x i8]], [50 x [100 x i8]]* %7, i64 0, i64 %129
  %131 = load i32, i32* %3, align 4
  %132 = sub nsw i32 %131, 3
  %133 = sext i32 %132 to i64
  %134 = getelementptr inbounds [100 x i8], [100 x i8]* %130, i64 0, i64 %133
  store i8 0, i8* %134, align 1
  br label %135

135:                                              ; preds = %127, %116, %105, %94
  br label %136

136:                                              ; preds = %135
  %137 = load i32, i32* %4, align 4
  %138 = add nsw i32 %137, 1
  store i32 %138, i32* %4, align 4
  br label %23

139:                                              ; preds = %23
  store i32 0, i32* %4, align 4
  br label %140

140:                                              ; preds = %150, %139
  %141 = load i32, i32* %4, align 4
  %142 = load i32, i32* %2, align 4
  %143 = icmp slt i32 %141, %142
  br i1 %143, label %144, label %153

144:                                              ; preds = %140
  %145 = load i32, i32* %4, align 4
  %146 = sext i32 %145 to i64
  %147 = getelementptr inbounds [50 x [100 x i8]], [50 x [100 x i8]]* %7, i64 0, i64 %146
  %148 = getelementptr inbounds [100 x i8], [100 x i8]* %147, i64 0, i64 0
  %149 = call i32 (i8*, ...) @printf(i8* getelementptr inbounds ([4 x i8], [4 x i8]* @.str.2, i64 0, i64 0), i8* %148)
  br label %150

150:                                              ; preds = %144
  %151 = load i32, i32* %4, align 4
  %152 = add nsw i32 %151, 1
  store i32 %152, i32* %4, align 4
  br label %140

153:                                              ; preds = %140
  ret i32 0
}

declare dso_local i32 @__isoc99_scanf(i8*, ...) #1

; Function Attrs: nounwind readonly
declare dso_local i64 @strlen(i8*) #2

declare dso_local i32 @printf(i8*, ...) #1


!llvm.module.flags = !{!0}
!llvm.ident = !{!1}

!0 = !{i32 1, !"wchar_size", i32 4}
!1 = !{!"clang version 10.0.0-4ubuntu1 "}
